; Function Attrs: mustprogress uwtable
define noundef zeroext i1 @_ZNK7Imf_3_29InputFile21isOptimizationEnabledEv(ptr nocapture noundef nonnull readonly align 8 dereferenceable(16) %this) local_unnamed_addr #3 align 2 {
entry:
  %_data = getelementptr inbounds i8, ptr %this, i64 8
  %0 = load ptr, ptr %_data, align 8
  %sFile = getelementptr inbounds i8, ptr %0, i64 112
  %1 = load ptr, ptr %sFile, align 8
  %tobool.not = icmp eq ptr %1, null
  br i1 %tobool.not, label %return, label %if.then

if.then:                                          ; preds = %entry
  %call = tail call noundef zeroext i1 @_ZNK7Imf_3_217ScanLineInputFile21isOptimizationEnabledEv(ptr noundef nonnull align 8 dereferenceable(24) %1)
  br label %return

return:                                           ; preds = %entry, %if.then
  %retval.0 = phi i1 [ %call, %if.then ], [ false, %entry ]
  ret i1 %retval.0
}